target datalayout = "e-m:e-p270:32:32-p271:32:32-p272:64:64-i64:64-i128:128-f80:128-n8:16:32:64-S128"
target triple = "x86_64-pc-linux-gnu"

@.str.1 = private unnamed_addr constant [20 x i8] c"toast_compression.c\00", align 1
@.str.4 = private unnamed_addr constant [5 x i8] c"pglz\00", align 1
@.str.5 = private unnamed_addr constant [4 x i8] c"lz4\00", align 1
@.str.6 = private unnamed_addr constant [30 x i8] c"invalid compression method %c\00", align 1
@__func__.GetCompressionMethodName = private unnamed_addr constant [25 x i8] c"GetCompressionMethodName\00", align 1

; Function Attrs: nounwind uwtable
define dso_local ptr @GetCompressionMethodName(i8 noundef signext %0) #0 {
  %2 = alloca ptr, align 8
  %3 = alloca i8, align 1
  store i8 %0, ptr %3, align 1
  %4 = load i8, ptr %3, align 1
  %5 = sext i8 %4 to i32
  switch i32 %5, label %8 [
    i32 112, label %6
    i32 108, label %7
  ]

6:                                                ; preds = %1
  store ptr @.str.4, ptr %2, align 8
  br label %20

7:                                                ; preds = %1
  store ptr @.str.5, ptr %2, align 8
  br label %20

8:                                                ; preds = %1
  br label %9

9:                                                ; preds = %8
  br i1 true, label %10, label %12

10:                                               ; preds = %9
  %11 = call zeroext i1 @errstart_cold(i32 noundef 21, ptr noundef null) #7
  br i1 %11, label %14, label %18

12:                                               ; preds = %9
  %13 = call zeroext i1 @errstart(i32 noundef 21, ptr noundef null)
  br i1 %13, label %14, label %18

14:                                               ; preds = %12, %10
  %15 = load i8, ptr %3, align 1
  %16 = sext i8 %15 to i32
  %17 = call i32 (ptr, ...) @errmsg_internal(ptr noundef @.str.6, i32 noundef %16)
  call void @errfinish(ptr noundef @.str.1, i32 noundef 313, ptr noundef @__func__.GetCompressionMethodName)
  br label %18

18:                                               ; preds = %14, %12, %10
  unreachable

19:                                               ; No predecessors!
  store ptr null, ptr %2, align 8
  br label %20

20:                                               ; preds = %19, %7, %6
  %21 = load ptr, ptr %2, align 8
  ret ptr %21
}