; Function Attrs: nounwind uwtable
define dso_local noundef nonnull ptr @GetCompressionMethodName(i8 noundef signext %0) local_unnamed_addr #0 {
  switch i8 %0, label %3 [
    i8 112, label %7
    i8 108, label %2
  ]

2:                                                ; preds = %1
  br label %7

3:                                                ; preds = %1
  %4 = sext i8 %0 to i32
  %5 = tail call zeroext i1 @errstart_cold(i32 noundef 21, ptr noundef null) #8
  tail call void @llvm.assume(i1 %5)
  %6 = tail call i32 (ptr, ...) @errmsg_internal(ptr noundef nonnull @.str.6, i32 noundef %4) #7
  tail call void @errfinish(ptr noundef nonnull @.str.1, i32 noundef 313, ptr noundef nonnull @__func__.GetCompressionMethodName) #7
  unreachable

7:                                                ; preds = %1, %2
  %.0 = phi ptr [ @.str.5, %2 ], [ @.str.4, %1 ]
  ret ptr %.0
}